; Function Attrs: mustprogress nounwind uwtable
define hidden noundef zeroext i1 @_ZNK19OpenColorIO_v2_5dev16CDLTransformImpl6equalsERKNS_12CDLTransformE(ptr noundef nonnull align 8 dereferenceable(296) %0, ptr noundef nonnull align 8 dereferenceable(8) %1) unnamed_addr #7 align 2 personality ptr @__gxx_personality_v0 {
  %3 = icmp eq ptr %0, %1
  br i1 %3, label %9, label %4

4:                                                ; preds = %2
  %5 = getelementptr inbounds nuw i8, ptr %0, i64 40
  %6 = tail call ptr @__dynamic_cast(ptr nonnull %1, ptr nonnull @_ZTIN19OpenColorIO_v2_5dev12CDLTransformE, ptr nonnull @_ZTIN19OpenColorIO_v2_5dev16CDLTransformImplE, i64 0) #26
  %7 = getelementptr inbounds nuw i8, ptr %6, i64 40
  %8 = invoke noundef zeroext i1 @_ZN19OpenColorIO_v2_5deveqERKNS_9CDLOpDataES2_(ptr noundef nonnull align 8 dereferenceable(256) %5, ptr noundef nonnull align 8 dereferenceable(256) %7)
          to label %9 unwind label %10

9:                                                ; preds = %4, %2
  %.0 = phi i1 [ true, %2 ], [ %8, %4 ]
  ret i1 %.0

10:                                               ; preds = %4
  %11 = landingpad { ptr, i32 }
          catch ptr null
  %12 = extractvalue { ptr, i32 } %11, 0
  tail call void @__clang_call_terminate(ptr %12) #28
  unreachable
}